; Function Attrs: nounwind uwtable
define dso_local i64 @nth_midxed_offset(ptr noundef readonly %0, i32 noundef %1) local_unnamed_addr #1 {
  %.not18.i = icmp eq ptr %0, null
  br i1 %.not18.i, label %.critedge15.i, label %.lr.ph.i

.lr.ph.i:                                         ; preds = %2, %6
  %.019.i = phi ptr [ %.0.i, %6 ], [ %0, %2 ]
  %3 = getelementptr inbounds nuw i8, ptr %.019.i, i64 176
  %4 = load i32, ptr %3, align 8, !tbaa !41
  %5 = icmp ult i32 %1, %4
  br i1 %5, label %6, label %.critedge.i

6:                                                ; preds = %.lr.ph.i
  %7 = getelementptr inbounds nuw i8, ptr %.019.i, i64 168
  %.0.i = load ptr, ptr %7, align 8, !tbaa !44
  %.not.i = icmp eq ptr %.0.i, null
  br i1 %.not.i, label %.critedge15.i, label %.lr.ph.i, !llvm.loop !76

.critedge15.i:                                    ; preds = %6, %2
  tail call void (ptr, i32, ptr, ...) @BUG_fl(ptr noundef nonnull @.str.43, i32 noundef 424, ptr noundef nonnull @.str.64, i32 noundef %1) #24
  unreachable

.critedge.i:                                      ; preds = %.lr.ph.i
  %8 = getelementptr inbounds nuw i8, ptr %.019.i, i64 60
  %9 = load i32, ptr %8, align 4, !tbaa !41
  %10 = add i32 %9, %4
  %.not14.i = icmp ult i32 %1, %10
  br i1 %.not14.i, label %midx_for_object.exit, label %11

11:                                               ; preds = %.critedge.i
  %12 = tail call fastcc ptr @_(ptr noundef nonnull @.str.65)
  tail call void (ptr, ...) @die(ptr noundef %12) #24
  unreachable

midx_for_object.exit:                             ; preds = %.critedge.i
  %13 = sub i32 %1, %4
  %14 = getelementptr inbounds nuw i8, ptr %.019.i, i64 128
  %15 = load ptr, ptr %14, align 8, !tbaa !4
  %16 = zext i32 %13 to i64
  %17 = shl nuw nsw i64 %16, 3
  %18 = getelementptr inbounds nuw i8, ptr %15, i64 %17
  %19 = getelementptr inbounds nuw i8, ptr %18, i64 4
  %20 = load i8, ptr %19, align 1, !tbaa !43
  %21 = zext i8 %20 to i32
  %22 = shl nuw i32 %21, 24
  %23 = getelementptr inbounds nuw i8, ptr %18, i64 5
  %24 = load i8, ptr %23, align 1, !tbaa !43
  %25 = zext i8 %24 to i32
  %26 = shl nuw nsw i32 %25, 16
  %27 = getelementptr inbounds nuw i8, ptr %18, i64 6
  %28 = load i8, ptr %27, align 1, !tbaa !43
  %29 = zext i8 %28 to i32
  %30 = shl nuw nsw i32 %29, 8
  %31 = getelementptr inbounds nuw i8, ptr %18, i64 7
  %32 = load i8, ptr %31, align 1, !tbaa !43
  %33 = zext i8 %32 to i32
  %34 = or disjoint i32 %26, %33
  %35 = or disjoint i32 %34, %30
  %36 = or disjoint i32 %35, %22
  %37 = getelementptr inbounds nuw i8, ptr %.019.i, i64 136
  %38 = load ptr, ptr %37, align 8, !tbaa !4
  %.not = icmp eq ptr %38, null
  %.not10 = icmp sgt i32 %22, -1
  %or.cond = select i1 %.not, i1 true, i1 %.not10
  br i1 %or.cond, label %87, label %39

39:                                               ; preds = %midx_for_object.exit
  %40 = and i32 %36, 2147483647
  %41 = zext nneg i32 %40 to i64
  %42 = getelementptr inbounds nuw i8, ptr %.019.i, i64 144
  %43 = load i64, ptr %42, align 8, !tbaa !9
  %44 = lshr i64 %43, 3
  %.not11 = icmp samesign ugt i64 %44, %41
  br i1 %.not11, label %47, label %45

45:                                               ; preds = %39
  %46 = tail call fastcc ptr @_(ptr noundef nonnull @.str.10)
  tail call void (ptr, ...) @die(ptr noundef %46) #24
  unreachable

47:                                               ; preds = %39
  %48 = shl nuw nsw i64 %41, 3
  %49 = getelementptr inbounds nuw i8, ptr %38, i64 %48
  %50 = load i8, ptr %49, align 1, !tbaa !43
  %51 = zext i8 %50 to i64
  %52 = shl nuw nsw i64 %51, 24
  %53 = getelementptr inbounds nuw i8, ptr %49, i64 1
  %54 = load i8, ptr %53, align 1, !tbaa !43
  %55 = zext i8 %54 to i64
  %56 = shl nuw nsw i64 %55, 16
  %57 = or disjoint i64 %56, %52
  %58 = getelementptr inbounds nuw i8, ptr %49, i64 2
  %59 = load i8, ptr %58, align 1, !tbaa !43
  %60 = zext i8 %59 to i64
  %61 = shl nuw nsw i64 %60, 8
  %62 = or disjoint i64 %57, %61
  %63 = getelementptr inbounds nuw i8, ptr %49, i64 3
  %64 = load i8, ptr %63, align 1, !tbaa !43
  %65 = zext i8 %64 to i64
  %66 = or disjoint i64 %62, %65
  %67 = shl nuw i64 %66, 32
  %68 = getelementptr inbounds nuw i8, ptr %49, i64 4
  %69 = load i8, ptr %68, align 1, !tbaa !43
  %70 = zext i8 %69 to i64
  %71 = shl nuw nsw i64 %70, 24
  %72 = getelementptr inbounds nuw i8, ptr %49, i64 5
  %73 = load i8, ptr %72, align 1, !tbaa !43
  %74 = zext i8 %73 to i64
  %75 = shl nuw nsw i64 %74, 16
  %76 = or disjoint i64 %75, %71
  %77 = getelementptr inbounds nuw i8, ptr %49, i64 6
  %78 = load i8, ptr %77, align 1, !tbaa !43
  %79 = zext i8 %78 to i64
  %80 = shl nuw nsw i64 %79, 8
  %81 = getelementptr inbounds nuw i8, ptr %49, i64 7
  %82 = load i8, ptr %81, align 1, !tbaa !43
  %83 = zext i8 %82 to i64
  %84 = or disjoint i64 %76, %67
  %85 = or disjoint i64 %84, %80
  %86 = or disjoint i64 %85, %83
  br label %89

87:                                               ; preds = %midx_for_object.exit
  %88 = zext i32 %36 to i64
  br label %89

89:                                               ; preds = %87, %47
  %.0 = phi i64 [ %86, %47 ], [ %88, %87 ]
  ret i64 %.0
}